target datalayout = "e-m:e-p270:32:32-p271:32:32-p272:64:64-i64:64-i128:128-f80:128-n8:16:32:64-S128"
target triple = "x86_64-pc-linux-gnu"

@.str.6 = private unnamed_addr constant [11 x i8] c"0123456789\00", align 1

; Function Attrs: nounwind uwtable
define i32 @cli_isnumber(ptr noundef %0) #0 {
  %2 = alloca i32, align 4
  %3 = alloca ptr, align 8
  store ptr %0, ptr %3, align 8
  %4 = load ptr, ptr %3, align 8
  %5 = icmp eq ptr null, %4
  br i1 %5, label %6, label %7

6:                                                ; preds = %1
  store i32 0, ptr %2, align 4
  br label %22

7:                                                ; preds = %1
  br label %8

8:                                                ; preds = %20, %7
  %9 = load ptr, ptr %3, align 8
  %10 = load i8, ptr %9, align 1
  %11 = icmp ne i8 %10, 0
  br i1 %11, label %12, label %21

12:                                               ; preds = %8
  %13 = load ptr, ptr %3, align 8
  %14 = getelementptr inbounds i8, ptr %13, i32 1
  store ptr %14, ptr %3, align 8
  %15 = load i8, ptr %13, align 1
  %16 = sext i8 %15 to i32
  %17 = call ptr @strchr(ptr noundef @.str.6, i32 noundef %16) #7
  %18 = icmp ne ptr %17, null
  br i1 %18, label %20, label %19

19:                                               ; preds = %12
  store i32 0, ptr %2, align 4
  br label %22

20:                                               ; preds = %12
  br label %8

21:                                               ; preds = %8
  store i32 1, ptr %2, align 4
  br label %22

22:                                               ; preds = %21, %19, %6
  %23 = load i32, ptr %2, align 4
  ret i32 %23
}