; Function Attrs: nofree norecurse nosync nounwind memory(read, inaccessiblemem: none) uwtable
define noundef i32 @cli_isnumber(ptr noundef readonly %0) local_unnamed_addr #20 {
  %2 = icmp eq ptr %0, null
  br i1 %2, label %.loopexit, label %.preheader

.preheader:                                       ; preds = %1, %4
  %.0 = phi ptr [ %5, %4 ], [ %0, %1 ]
  %3 = load i8, ptr %.0, align 1
  %.not = icmp eq i8 %3, 0
  br i1 %.not, label %.loopexit, label %4

4:                                                ; preds = %.preheader
  %5 = getelementptr inbounds i8, ptr %.0, i64 1
  %6 = zext nneg i8 %3 to i64
  %memchr.bounds = icmp ugt i8 %3, 63
  %7 = shl nuw i64 1, %6
  %8 = and i64 %7, 287948901175001089
  %memchr.bits = icmp eq i64 %8, 0
  %memchr6.not = select i1 %memchr.bounds, i1 true, i1 %memchr.bits
  br i1 %memchr6.not, label %.loopexit, label %.preheader

.loopexit:                                        ; preds = %.preheader, %4, %1
  %.03 = phi i32 [ 0, %1 ], [ 1, %.preheader ], [ 0, %4 ]
  ret i32 %.03
}